target datalayout = "e-m:e-p270:32:32-p271:32:32-p272:64:64-i64:64-i128:128-f80:128-n8:16:32:64-S128"
target triple = "x86_64-pc-linux-gnu"

%struct._object = type { i64, ptr }
%"class.std::__cxx11::basic_string" = type { %"struct.std::__cxx11::basic_string<char>::_Alloc_hider", i64, %union.anon }
%"struct.std::__cxx11::basic_string<char>::_Alloc_hider" = type { ptr }
%union.anon = type { i64, [8 x i8] }
%class.ArgInfo = type <{ ptr, i8, i8, i8, i8, [4 x i8] }>
%"struct.(anonymous namespace)::SafeSeqItem" = type { ptr }
%"class.cv::TermCriteria" = type { i32, i32, double }

@_Py_NoneStruct = external global %struct._object, align 8
@.str.43 = private unnamed_addr constant [82 x i8] c"Can't parse '%s' as TermCriteria.Input argument doesn't provide sequence protocol\00", align 1
@.str.44 = private unnamed_addr constant [70 x i8] c"Can't parse '%s' as TermCriteria. Expected sequence length 3, got %lu\00", align 1
@.str.45 = private unnamed_addr constant [19 x i8] c"'%s' criteria type\00", align 1
@.str.46 = private unnamed_addr constant [15 x i8] c"'%s' max count\00", align 1
@.str.47 = private unnamed_addr constant [13 x i8] c"'%s' epsilon\00", align 1

; Function Attrs: mustprogress uwtable
define internal void @_ZN12_GLOBAL__N_111SafeSeqItemC2EP7_objectm(ptr noundef nonnull align 8 dereferenceable(8) %0, ptr noundef %1, i64 noundef %2) unnamed_addr #4 align 2 {
  %4 = alloca ptr, align 8
  %5 = alloca ptr, align 8
  %6 = alloca i64, align 8
  store ptr %0, ptr %4, align 8
  store ptr %1, ptr %5, align 8
  store i64 %2, ptr %6, align 8
  %7 = load ptr, ptr %4, align 8
  %8 = load ptr, ptr %5, align 8
  %9 = load i64, ptr %6, align 8
  %10 = call ptr @PySequence_GetItem(ptr noundef %8, i64 noundef %9)
  %11 = getelementptr inbounds %"struct.(anonymous namespace)::SafeSeqItem", ptr %7, i32 0, i32 0
  store ptr %10, ptr %11, align 8
  ret void
}

; Function Attrs: mustprogress nounwind uwtable
define linkonce_odr hidden void @_ZN7ArgInfoC2EPKcj(ptr noundef nonnull align 8 dereferenceable(12) %0, ptr noundef %1, i32 noundef %2) unnamed_addr #5 comdat align 2 {
  %4 = alloca ptr, align 8
  %5 = alloca ptr, align 8
  %6 = alloca i32, align 4
  store ptr %0, ptr %4, align 8
  store ptr %1, ptr %5, align 8
  store i32 %2, ptr %6, align 4
  %7 = load ptr, ptr %4, align 8
  %8 = getelementptr inbounds %class.ArgInfo, ptr %7, i32 0, i32 0
  %9 = load ptr, ptr %5, align 8
  store ptr %9, ptr %8, align 8
  %10 = getelementptr inbounds %class.ArgInfo, ptr %7, i32 0, i32 1
  %11 = load i32, ptr %6, align 4
  %12 = and i32 %11, 1
  %13 = icmp ne i32 %12, 0
  %14 = zext i1 %13 to i8
  store i8 %14, ptr %10, align 8
  %15 = getelementptr inbounds %class.ArgInfo, ptr %7, i32 0, i32 2
  %16 = load i32, ptr %6, align 4
  %17 = and i32 %16, 2
  %18 = icmp ne i32 %17, 0
  %19 = zext i1 %18 to i8
  store i8 %19, ptr %15, align 1
  %20 = getelementptr inbounds %class.ArgInfo, ptr %7, i32 0, i32 3
  %21 = load i32, ptr %6, align 4
  %22 = and i32 %21, 4
  %23 = icmp ne i32 %22, 0
  %24 = zext i1 %23 to i8
  store i8 %24, ptr %20, align 2
  %25 = getelementptr inbounds %class.ArgInfo, ptr %7, i32 0, i32 4
  %26 = load i32, ptr %6, align 4
  %27 = and i32 %26, 8
  %28 = icmp ne i32 %27, 0
  %29 = zext i1 %28 to i8
  store i8 %29, ptr %25, align 1
  ret void
}

; Function Attrs: mustprogress uwtable
define hidden noundef zeroext i1 @_Z11pyopencv_toIN2cv12TermCriteriaEEbP7_objectRT_RK7ArgInfo(ptr noundef %0, ptr noundef nonnull align 8 dereferenceable(16) %1, ptr noundef nonnull align 8 dereferenceable(12) %2) #4 personality ptr @__gxx_personality_v0 {
  %4 = alloca i1, align 1
  %5 = alloca ptr, align 8
  %6 = alloca ptr, align 8
  %7 = alloca ptr, align 8
  %8 = alloca i64, align 8
  %9 = alloca %"class.std::__cxx11::basic_string", align 8
  %10 = alloca %class.ArgInfo, align 8
  %11 = alloca ptr, align 8
  %12 = alloca i32, align 4
  %13 = alloca %"struct.(anonymous namespace)::SafeSeqItem", align 8
  %14 = alloca i32, align 4
  %15 = alloca %"class.std::__cxx11::basic_string", align 8
  %16 = alloca %class.ArgInfo, align 8
  %17 = alloca %"struct.(anonymous namespace)::SafeSeqItem", align 8
  %18 = alloca %"class.std::__cxx11::basic_string", align 8
  %19 = alloca %class.ArgInfo, align 8
  %20 = alloca %"struct.(anonymous namespace)::SafeSeqItem", align 8
  store ptr %0, ptr %5, align 8
  store ptr %1, ptr %6, align 8
  store ptr %2, ptr %7, align 8
  %21 = load ptr, ptr %5, align 8
  %22 = icmp ne ptr %21, null
  br i1 %22, label %23, label %26

23:                                               ; preds = %3
  %24 = load ptr, ptr %5, align 8
  %25 = icmp eq ptr %24, @_Py_NoneStruct
  br i1 %25, label %26, label %27

26:                                               ; preds = %23, %3
  store i1 true, ptr %4, align 1
  br label %129

27:                                               ; preds = %23
  %28 = load ptr, ptr %5, align 8
  %29 = call i32 @PySequence_Check(ptr noundef %28)
  %30 = icmp ne i32 %29, 0
  br i1 %30, label %36, label %31

31:                                               ; preds = %27
  %32 = load ptr, ptr %7, align 8
  %33 = getelementptr inbounds %class.ArgInfo, ptr %32, i32 0, i32 0
  %34 = load ptr, ptr %33, align 8
  %35 = call noundef i32 (ptr, ...) @_Z7failmsgPKcz(ptr noundef @.str.43, ptr noundef %34)
  store i1 false, ptr %4, align 1
  br label %129

36:                                               ; preds = %27
  %37 = load ptr, ptr %5, align 8
  %38 = call i64 @PySequence_Size(ptr noundef %37)
  store i64 %38, ptr %8, align 8
  %39 = load i64, ptr %8, align 8
  %40 = icmp ne i64 %39, 3
  br i1 %40, label %41, label %47

41:                                               ; preds = %36
  %42 = load ptr, ptr %7, align 8
  %43 = getelementptr inbounds %class.ArgInfo, ptr %42, i32 0, i32 0
  %44 = load ptr, ptr %43, align 8
  %45 = load i64, ptr %8, align 8
  %46 = call noundef i32 (ptr, ...) @_Z7failmsgPKcz(ptr noundef @.str.44, ptr noundef %44, i64 noundef %45)
  store i1 false, ptr %4, align 1
  br label %129

47:                                               ; preds = %36
  %48 = load ptr, ptr %7, align 8
  %49 = getelementptr inbounds %class.ArgInfo, ptr %48, i32 0, i32 0
  %50 = load ptr, ptr %49, align 8
  call void (ptr, ptr, ...) @_ZN2cv6formatB5cxx11EPKcz(ptr dead_on_unwind writable sret(%"class.std::__cxx11::basic_string") align 8 %9, ptr noundef @.str.45, ptr noundef %50)
  %51 = call noundef ptr @_ZNKSt7__cxx1112basic_stringIcSt11char_traitsIcESaIcEE5c_strEv(ptr noundef nonnull align 8 dereferenceable(32) %9) #3
  invoke void @_ZN7ArgInfoC2EPKcj(ptr noundef nonnull align 8 dereferenceable(12) %10, ptr noundef %51, i32 noundef 0)
          to label %52 unwind label %62

52:                                               ; preds = %47
  %53 = load ptr, ptr %5, align 8
  invoke void @_ZN12_GLOBAL__N_111SafeSeqItemC2EP7_objectm(ptr noundef nonnull align 8 dereferenceable(8) %13, ptr noundef %53, i64 noundef 0)
          to label %54 unwind label %62

54:                                               ; preds = %52
  %55 = getelementptr inbounds %"struct.(anonymous namespace)::SafeSeqItem", ptr %13, i32 0, i32 0
  %56 = load ptr, ptr %55, align 8
  %57 = load ptr, ptr %6, align 8
  %58 = getelementptr inbounds %"class.cv::TermCriteria", ptr %57, i32 0, i32 0
  %59 = invoke noundef zeroext i1 @_Z11pyopencv_toIiEbP7_objectRT_RK7ArgInfo(ptr noundef %56, ptr noundef nonnull align 4 dereferenceable(4) %58, ptr noundef nonnull align 8 dereferenceable(12) %10)
          to label %60 unwind label %66

60:                                               ; preds = %54
  br i1 %59, label %70, label %61

61:                                               ; preds = %60
  store i1 false, ptr %4, align 1
  store i32 1, ptr %14, align 4
  br label %71

62:                                               ; preds = %52, %47
  %63 = landingpad { ptr, i32 }
          cleanup
  %64 = extractvalue { ptr, i32 } %63, 0
  store ptr %64, ptr %11, align 8
  %65 = extractvalue { ptr, i32 } %63, 1
  store i32 %65, ptr %12, align 4
  br label %88

66:                                               ; preds = %54
  %67 = landingpad { ptr, i32 }
          cleanup
  %68 = extractvalue { ptr, i32 } %67, 0
  store ptr %68, ptr %11, align 8
  %69 = extractvalue { ptr, i32 } %67, 1
  store i32 %69, ptr %12, align 4
  call void @_ZN12_GLOBAL__N_111SafeSeqItemD2Ev(ptr noundef nonnull align 8 dereferenceable(8) %13) #3
  br label %88

70:                                               ; preds = %60
  store i32 0, ptr %14, align 4
  br label %71

71:                                               ; preds = %70, %61
  call void @_ZN12_GLOBAL__N_111SafeSeqItemD2Ev(ptr noundef nonnull align 8 dereferenceable(8) %13) #3
  call void @_ZNSt7__cxx1112basic_stringIcSt11char_traitsIcESaIcEED1Ev(ptr noundef nonnull align 8 dereferenceable(32) %9) #3
  %72 = load i32, ptr %14, align 4
  switch i32 %72, label %136 [
    i32 0, label %73
    i32 1, label %129
  ]

73:                                               ; preds = %71
  %74 = load ptr, ptr %7, align 8
  %75 = getelementptr inbounds %class.ArgInfo, ptr %74, i32 0, i32 0
  %76 = load ptr, ptr %75, align 8
  call void (ptr, ptr, ...) @_ZN2cv6formatB5cxx11EPKcz(ptr dead_on_unwind writable sret(%"class.std::__cxx11::basic_string") align 8 %15, ptr noundef @.str.46, ptr noundef %76)
  %77 = call noundef ptr @_ZNKSt7__cxx1112basic_stringIcSt11char_traitsIcESaIcEE5c_strEv(ptr noundef nonnull align 8 dereferenceable(32) %15) #3
  invoke void @_ZN7ArgInfoC2EPKcj(ptr noundef nonnull align 8 dereferenceable(12) %16, ptr noundef %77, i32 noundef 0)
          to label %78 unwind label %89

78:                                               ; preds = %73
  %79 = load ptr, ptr %5, align 8
  invoke void @_ZN12_GLOBAL__N_111SafeSeqItemC2EP7_objectm(ptr noundef nonnull align 8 dereferenceable(8) %17, ptr noundef %79, i64 noundef 1)
          to label %80 unwind label %89

80:                                               ; preds = %78
  %81 = getelementptr inbounds %"struct.(anonymous namespace)::SafeSeqItem", ptr %17, i32 0, i32 0
  %82 = load ptr, ptr %81, align 8
  %83 = load ptr, ptr %6, align 8
  %84 = getelementptr inbounds %"class.cv::TermCriteria", ptr %83, i32 0, i32 1
  %85 = invoke noundef zeroext i1 @_Z11pyopencv_toIiEbP7_objectRT_RK7ArgInfo(ptr noundef %82, ptr noundef nonnull align 4 dereferenceable(4) %84, ptr noundef nonnull align 8 dereferenceable(12) %16)
          to label %86 unwind label %93

86:                                               ; preds = %80
  br i1 %85, label %97, label %87

87:                                               ; preds = %86
  store i1 false, ptr %4, align 1
  store i32 1, ptr %14, align 4
  br label %98

88:                                               ; preds = %66, %62
  call void @_ZNSt7__cxx1112basic_stringIcSt11char_traitsIcESaIcEED1Ev(ptr noundef nonnull align 8 dereferenceable(32) %9) #3
  br label %131

89:                                               ; preds = %78, %73
  %90 = landingpad { ptr, i32 }
          cleanup
  %91 = extractvalue { ptr, i32 } %90, 0
  store ptr %91, ptr %11, align 8
  %92 = extractvalue { ptr, i32 } %90, 1
  store i32 %92, ptr %12, align 4
  br label %115

93:                                               ; preds = %80
  %94 = landingpad { ptr, i32 }
          cleanup
  %95 = extractvalue { ptr, i32 } %94, 0
  store ptr %95, ptr %11, align 8
  %96 = extractvalue { ptr, i32 } %94, 1
  store i32 %96, ptr %12, align 4
  call void @_ZN12_GLOBAL__N_111SafeSeqItemD2Ev(ptr noundef nonnull align 8 dereferenceable(8) %17) #3
  br label %115

97:                                               ; preds = %86
  store i32 0, ptr %14, align 4
  br label %98

98:                                               ; preds = %97, %87
  call void @_ZN12_GLOBAL__N_111SafeSeqItemD2Ev(ptr noundef nonnull align 8 dereferenceable(8) %17) #3
  call void @_ZNSt7__cxx1112basic_stringIcSt11char_traitsIcESaIcEED1Ev(ptr noundef nonnull align 8 dereferenceable(32) %15) #3
  %99 = load i32, ptr %14, align 4
  switch i32 %99, label %136 [
    i32 0, label %100
    i32 1, label %129
  ]

100:                                              ; preds = %98
  %101 = load ptr, ptr %7, align 8
  %102 = getelementptr inbounds %class.ArgInfo, ptr %101, i32 0, i32 0
  %103 = load ptr, ptr %102, align 8
  call void (ptr, ptr, ...) @_ZN2cv6formatB5cxx11EPKcz(ptr dead_on_unwind writable sret(%"class.std::__cxx11::basic_string") align 8 %18, ptr noundef @.str.47, ptr noundef %103)
  %104 = call noundef ptr @_ZNKSt7__cxx1112basic_stringIcSt11char_traitsIcESaIcEE5c_strEv(ptr noundef nonnull align 8 dereferenceable(32) %18) #3
  invoke void @_ZN7ArgInfoC2EPKcj(ptr noundef nonnull align 8 dereferenceable(12) %19, ptr noundef %104, i32 noundef 0)
          to label %105 unwind label %116

105:                                              ; preds = %100
  %106 = load ptr, ptr %5, align 8
  invoke void @_ZN12_GLOBAL__N_111SafeSeqItemC2EP7_objectm(ptr noundef nonnull align 8 dereferenceable(8) %20, ptr noundef %106, i64 noundef 2)
          to label %107 unwind label %116

107:                                              ; preds = %105
  %108 = getelementptr inbounds %"struct.(anonymous namespace)::SafeSeqItem", ptr %20, i32 0, i32 0
  %109 = load ptr, ptr %108, align 8
  %110 = load ptr, ptr %6, align 8
  %111 = getelementptr inbounds %"class.cv::TermCriteria", ptr %110, i32 0, i32 2
  %112 = invoke noundef zeroext i1 @_Z11pyopencv_toIdEbP7_objectRT_RK7ArgInfo(ptr noundef %109, ptr noundef nonnull align 8 dereferenceable(8) %111, ptr noundef nonnull align 8 dereferenceable(12) %19)
          to label %113 unwind label %120

113:                                              ; preds = %107
  br i1 %112, label %124, label %114

114:                                              ; preds = %113
  store i1 false, ptr %4, align 1
  store i32 1, ptr %14, align 4
  br label %125

115:                                              ; preds = %93, %89
  call void @_ZNSt7__cxx1112basic_stringIcSt11char_traitsIcESaIcEED1Ev(ptr noundef nonnull align 8 dereferenceable(32) %15) #3
  br label %131

116:                                              ; preds = %105, %100
  %117 = landingpad { ptr, i32 }
          cleanup
  %118 = extractvalue { ptr, i32 } %117, 0
  store ptr %118, ptr %11, align 8
  %119 = extractvalue { ptr, i32 } %117, 1
  store i32 %119, ptr %12, align 4
  br label %128

120:                                              ; preds = %107
  %121 = landingpad { ptr, i32 }
          cleanup
  %122 = extractvalue { ptr, i32 } %121, 0
  store ptr %122, ptr %11, align 8
  %123 = extractvalue { ptr, i32 } %121, 1
  store i32 %123, ptr %12, align 4
  call void @_ZN12_GLOBAL__N_111SafeSeqItemD2Ev(ptr noundef nonnull align 8 dereferenceable(8) %20) #3
  br label %128

124:                                              ; preds = %113
  store i32 0, ptr %14, align 4
  br label %125

125:                                              ; preds = %124, %114
  call void @_ZN12_GLOBAL__N_111SafeSeqItemD2Ev(ptr noundef nonnull align 8 dereferenceable(8) %20) #3
  call void @_ZNSt7__cxx1112basic_stringIcSt11char_traitsIcESaIcEED1Ev(ptr noundef nonnull align 8 dereferenceable(32) %18) #3
  %126 = load i32, ptr %14, align 4
  switch i32 %126, label %136 [
    i32 0, label %127
    i32 1, label %129
  ]

127:                                              ; preds = %125
  store i1 true, ptr %4, align 1
  br label %129

128:                                              ; preds = %120, %116
  call void @_ZNSt7__cxx1112basic_stringIcSt11char_traitsIcESaIcEED1Ev(ptr noundef nonnull align 8 dereferenceable(32) %18) #3
  br label %131

129:                                              ; preds = %127, %125, %98, %71, %41, %31, %26
  %130 = load i1, ptr %4, align 1
  ret i1 %130

131:                                              ; preds = %128, %115, %88
  %132 = load ptr, ptr %11, align 8
  %133 = load i32, ptr %12, align 4
  %134 = insertvalue { ptr, i32 } poison, ptr %132, 0
  %135 = insertvalue { ptr, i32 } %134, i32 %133, 1
  resume { ptr, i32 } %135

136:                                              ; preds = %125, %98, %71
  unreachable
}