; Function Attrs: mustprogress uwtable
define hidden noundef zeroext i1 @_Z11pyopencv_toIN2cv12TermCriteriaEEbP7_objectRT_RK7ArgInfo(ptr noundef %0, ptr noundef nonnull align 8 dereferenceable(16) %1, ptr nocapture noundef nonnull readonly align 8 dereferenceable(12) %2) local_unnamed_addr #3 personality ptr @__gxx_personality_v0 {
  %4 = alloca %"class.std::__cxx11::basic_string", align 8
  %5 = alloca %class.ArgInfo, align 8
  %6 = alloca %"class.std::__cxx11::basic_string", align 8
  %7 = alloca %class.ArgInfo, align 8
  %8 = alloca %"class.std::__cxx11::basic_string", align 8
  %9 = alloca %class.ArgInfo, align 8
  %10 = icmp eq ptr %0, null
  %11 = icmp eq ptr %0, @_Py_NoneStruct
  %or.cond = or i1 %10, %11
  br i1 %or.cond, label %77, label %12

12:                                               ; preds = %3
  %13 = tail call i32 @PySequence_Check(ptr noundef nonnull %0)
  %.not = icmp eq i32 %13, 0
  br i1 %.not, label %14, label %17

14:                                               ; preds = %12
  %15 = load ptr, ptr %2, align 8
  %16 = tail call noundef i32 (ptr, ...) @_Z7failmsgPKcz(ptr noundef nonnull @.str.43, ptr noundef %15)
  br label %77

17:                                               ; preds = %12
  %18 = tail call i64 @PySequence_Size(ptr noundef nonnull %0)
  %.not36 = icmp eq i64 %18, 3
  %19 = load ptr, ptr %2, align 8
  br i1 %.not36, label %22, label %20

20:                                               ; preds = %17
  %21 = tail call noundef i32 (ptr, ...) @_Z7failmsgPKcz(ptr noundef nonnull @.str.44, ptr noundef %19, i64 noundef %18)
  br label %77

22:                                               ; preds = %17
  call void (ptr, ptr, ...) @_ZN2cv6formatB5cxx11EPKcz(ptr dead_on_unwind nonnull writable sret(%"class.std::__cxx11::basic_string") align 8 %4, ptr noundef nonnull @.str.45, ptr noundef %19)
  %23 = call noundef ptr @_ZNKSt7__cxx1112basic_stringIcSt11char_traitsIcESaIcEE5c_strEv(ptr noundef nonnull align 8 dereferenceable(32) %4) #12
  store ptr %23, ptr %5, align 8
  %24 = getelementptr inbounds i8, ptr %5, i64 8
  store i32 0, ptr %24, align 8
  %25 = invoke ptr @PySequence_GetItem(ptr noundef nonnull %0, i64 noundef 0)
          to label %_ZN12_GLOBAL__N_111SafeSeqItemC2EP7_objectm.exit unwind label %27

_ZN12_GLOBAL__N_111SafeSeqItemC2EP7_objectm.exit: ; preds = %22
  %26 = invoke noundef zeroext i1 @_Z11pyopencv_toIiEbP7_objectRT_RK7ArgInfo(ptr noundef %25, ptr noundef nonnull align 4 dereferenceable(4) %1, ptr noundef nonnull align 8 dereferenceable(12) %5)
          to label %31 unwind label %29

27:                                               ; preds = %22
  %28 = landingpad { ptr, i32 }
          cleanup
  br label %78

29:                                               ; preds = %_ZN12_GLOBAL__N_111SafeSeqItemC2EP7_objectm.exit
  %30 = landingpad { ptr, i32 }
          cleanup
  call fastcc void @_ZN12_GLOBAL__N_111SafeSeqItemD2Ev(ptr %25) #12
  br label %78

31:                                               ; preds = %_ZN12_GLOBAL__N_111SafeSeqItemC2EP7_objectm.exit
  %.not.i.i = icmp eq ptr %25, null
  br i1 %.not.i.i, label %_ZN12_GLOBAL__N_111SafeSeqItemD2Ev.exit, label %32

32:                                               ; preds = %31
  %33 = load i64, ptr %25, align 8
  %34 = add nsw i64 %33, -1
  store i64 %34, ptr %25, align 8
  %.not.i.i.i = icmp eq i64 %34, 0
  br i1 %.not.i.i.i, label %35, label %_ZN12_GLOBAL__N_111SafeSeqItemD2Ev.exit

35:                                               ; preds = %32
  invoke void @_Py_Dealloc(ptr noundef nonnull %25)
          to label %_ZN12_GLOBAL__N_111SafeSeqItemD2Ev.exit unwind label %36

36:                                               ; preds = %35
  %37 = landingpad { ptr, i32 }
          catch ptr null
  %38 = extractvalue { ptr, i32 } %37, 0
  call void @__clang_call_terminate(ptr %38) #13
  unreachable

_ZN12_GLOBAL__N_111SafeSeqItemD2Ev.exit:          ; preds = %31, %32, %35
  call void @_ZNSt7__cxx1112basic_stringIcSt11char_traitsIcESaIcEED1Ev(ptr noundef nonnull align 8 dereferenceable(32) %4) #12
  br i1 %26, label %39, label %77

39:                                               ; preds = %_ZN12_GLOBAL__N_111SafeSeqItemD2Ev.exit
  %40 = load ptr, ptr %2, align 8
  call void (ptr, ptr, ...) @_ZN2cv6formatB5cxx11EPKcz(ptr dead_on_unwind nonnull writable sret(%"class.std::__cxx11::basic_string") align 8 %6, ptr noundef nonnull @.str.46, ptr noundef %40)
  %41 = call noundef ptr @_ZNKSt7__cxx1112basic_stringIcSt11char_traitsIcESaIcEE5c_strEv(ptr noundef nonnull align 8 dereferenceable(32) %6) #12
  store ptr %41, ptr %7, align 8
  %42 = getelementptr inbounds i8, ptr %7, i64 8
  store i32 0, ptr %42, align 8
  %43 = invoke ptr @PySequence_GetItem(ptr noundef nonnull %0, i64 noundef 1)
          to label %_ZN12_GLOBAL__N_111SafeSeqItemC2EP7_objectm.exit52 unwind label %46

_ZN12_GLOBAL__N_111SafeSeqItemC2EP7_objectm.exit52: ; preds = %39
  %44 = getelementptr inbounds i8, ptr %1, i64 4
  %45 = invoke noundef zeroext i1 @_Z11pyopencv_toIiEbP7_objectRT_RK7ArgInfo(ptr noundef %43, ptr noundef nonnull align 4 dereferenceable(4) %44, ptr noundef nonnull align 8 dereferenceable(12) %7)
          to label %50 unwind label %48

46:                                               ; preds = %39
  %47 = landingpad { ptr, i32 }
          cleanup
  br label %78

48:                                               ; preds = %_ZN12_GLOBAL__N_111SafeSeqItemC2EP7_objectm.exit52
  %49 = landingpad { ptr, i32 }
          cleanup
  call fastcc void @_ZN12_GLOBAL__N_111SafeSeqItemD2Ev(ptr %43) #12
  br label %78

50:                                               ; preds = %_ZN12_GLOBAL__N_111SafeSeqItemC2EP7_objectm.exit52
  %.not.i.i53 = icmp eq ptr %43, null
  br i1 %.not.i.i53, label %_ZN12_GLOBAL__N_111SafeSeqItemD2Ev.exit55, label %51

51:                                               ; preds = %50
  %52 = load i64, ptr %43, align 8
  %53 = add nsw i64 %52, -1
  store i64 %53, ptr %43, align 8
  %.not.i.i.i54 = icmp eq i64 %53, 0
  br i1 %.not.i.i.i54, label %54, label %_ZN12_GLOBAL__N_111SafeSeqItemD2Ev.exit55

54:                                               ; preds = %51
  invoke void @_Py_Dealloc(ptr noundef nonnull %43)
          to label %_ZN12_GLOBAL__N_111SafeSeqItemD2Ev.exit55 unwind label %55

55:                                               ; preds = %54
  %56 = landingpad { ptr, i32 }
          catch ptr null
  %57 = extractvalue { ptr, i32 } %56, 0
  call void @__clang_call_terminate(ptr %57) #13
  unreachable

_ZN12_GLOBAL__N_111SafeSeqItemD2Ev.exit55:        ; preds = %50, %51, %54
  call void @_ZNSt7__cxx1112basic_stringIcSt11char_traitsIcESaIcEED1Ev(ptr noundef nonnull align 8 dereferenceable(32) %6) #12
  br i1 %45, label %58, label %77

58:                                               ; preds = %_ZN12_GLOBAL__N_111SafeSeqItemD2Ev.exit55
  %59 = load ptr, ptr %2, align 8
  call void (ptr, ptr, ...) @_ZN2cv6formatB5cxx11EPKcz(ptr dead_on_unwind nonnull writable sret(%"class.std::__cxx11::basic_string") align 8 %8, ptr noundef nonnull @.str.47, ptr noundef %59)
  %60 = call noundef ptr @_ZNKSt7__cxx1112basic_stringIcSt11char_traitsIcESaIcEE5c_strEv(ptr noundef nonnull align 8 dereferenceable(32) %8) #12
  store ptr %60, ptr %9, align 8
  %61 = getelementptr inbounds i8, ptr %9, i64 8
  store i32 0, ptr %61, align 8
  %62 = invoke ptr @PySequence_GetItem(ptr noundef nonnull %0, i64 noundef 2)
          to label %_ZN12_GLOBAL__N_111SafeSeqItemC2EP7_objectm.exit56 unwind label %65

_ZN12_GLOBAL__N_111SafeSeqItemC2EP7_objectm.exit56: ; preds = %58
  %63 = getelementptr inbounds i8, ptr %1, i64 8
  %64 = invoke noundef zeroext i1 @_Z11pyopencv_toIdEbP7_objectRT_RK7ArgInfo(ptr noundef %62, ptr noundef nonnull align 8 dereferenceable(8) %63, ptr noundef nonnull align 8 dereferenceable(12) %9)
          to label %69 unwind label %67

65:                                               ; preds = %58
  %66 = landingpad { ptr, i32 }
          cleanup
  br label %78

67:                                               ; preds = %_ZN12_GLOBAL__N_111SafeSeqItemC2EP7_objectm.exit56
  %68 = landingpad { ptr, i32 }
          cleanup
  call fastcc void @_ZN12_GLOBAL__N_111SafeSeqItemD2Ev(ptr %62) #12
  br label %78

69:                                               ; preds = %_ZN12_GLOBAL__N_111SafeSeqItemC2EP7_objectm.exit56
  %.not.i.i57 = icmp eq ptr %62, null
  br i1 %.not.i.i57, label %_ZN12_GLOBAL__N_111SafeSeqItemD2Ev.exit59, label %70

70:                                               ; preds = %69
  %71 = load i64, ptr %62, align 8
  %72 = add nsw i64 %71, -1
  store i64 %72, ptr %62, align 8
  %.not.i.i.i58 = icmp eq i64 %72, 0
  br i1 %.not.i.i.i58, label %73, label %_ZN12_GLOBAL__N_111SafeSeqItemD2Ev.exit59

73:                                               ; preds = %70
  invoke void @_Py_Dealloc(ptr noundef nonnull %62)
          to label %_ZN12_GLOBAL__N_111SafeSeqItemD2Ev.exit59 unwind label %74

74:                                               ; preds = %73
  %75 = landingpad { ptr, i32 }
          catch ptr null
  %76 = extractvalue { ptr, i32 } %75, 0
  call void @__clang_call_terminate(ptr %76) #13
  unreachable

_ZN12_GLOBAL__N_111SafeSeqItemD2Ev.exit59:        ; preds = %69, %70, %73
  call void @_ZNSt7__cxx1112basic_stringIcSt11char_traitsIcESaIcEED1Ev(ptr noundef nonnull align 8 dereferenceable(32) %8) #12
  br label %77

77:                                               ; preds = %_ZN12_GLOBAL__N_111SafeSeqItemD2Ev.exit59, %_ZN12_GLOBAL__N_111SafeSeqItemD2Ev.exit55, %_ZN12_GLOBAL__N_111SafeSeqItemD2Ev.exit, %3, %20, %14
  %.333 = phi i1 [ false, %20 ], [ false, %_ZN12_GLOBAL__N_111SafeSeqItemD2Ev.exit ], [ false, %_ZN12_GLOBAL__N_111SafeSeqItemD2Ev.exit55 ], [ false, %14 ], [ true, %3 ], [ %64, %_ZN12_GLOBAL__N_111SafeSeqItemD2Ev.exit59 ]
  ret i1 %.333

78:                                               ; preds = %65, %67, %46, %48, %27, %29
  %.sink = phi ptr [ %4, %29 ], [ %4, %27 ], [ %6, %48 ], [ %6, %46 ], [ %8, %67 ], [ %8, %65 ]
  %.pn40.pn = phi { ptr, i32 } [ %30, %29 ], [ %28, %27 ], [ %49, %48 ], [ %47, %46 ], [ %68, %67 ], [ %66, %65 ]
  call void @_ZNSt7__cxx1112basic_stringIcSt11char_traitsIcESaIcEED1Ev(ptr noundef nonnull align 8 dereferenceable(32) %.sink) #12
  resume { ptr, i32 } %.pn40.pn
}